; Function Attrs: mustprogress nounwind uwtable
define dso_local noundef zeroext i1 @_ZNK5clang9FieldDecl20isZeroLengthBitFieldERKNS_10ASTContextE(ptr nocapture noundef nonnull readonly align 8 dereferenceable(80) %0, ptr noundef nonnull align 8 dereferenceable(23096) %1) local_unnamed_addr #2 align 2 {
  %3 = alloca %"class.llvm::APSInt", align 8
  %4 = getelementptr inbounds nuw i8, ptr %0, i64 68
  %5 = load i32, ptr %4, align 4
  %6 = and i32 %5, 1
  %7 = icmp ne i32 %6, 0
  %8 = getelementptr inbounds nuw i8, ptr %0, i64 40
  %.sroa.0.0.copyload.i.i = load i64, ptr %8, align 8
  %.not.i = icmp eq i64 %.sroa.0.0.copyload.i.i, 0
  %9 = select i1 %7, i1 %.not.i, i1 false
  br i1 %9, label %_ZNK5clang9FieldDecl11getBitWidthEv.exit, label %31

_ZNK5clang9FieldDecl11getBitWidthEv.exit:         ; preds = %2
  %10 = lshr i32 %5, 2
  %11 = and i32 %10, 3
  %12 = icmp ne i32 %11, 3
  %13 = icmp ne i32 %11, 0
  %14 = and i1 %12, %13
  %15 = getelementptr inbounds nuw i8, ptr %0, i64 72
  %16 = load ptr, ptr %15, align 8
  %17 = getelementptr inbounds nuw i8, ptr %16, i64 8
  %.in.i = select i1 %14, ptr %17, ptr %15
  %18 = load ptr, ptr %.in.i, align 8
  %19 = getelementptr inbounds nuw i8, ptr %18, i64 1
  %20 = load i16, ptr %19, align 1
  %21 = and i16 %20, 256
  %.not = icmp eq i16 %21, 0
  br i1 %.not, label %22, label %31

22:                                               ; preds = %_ZNK5clang9FieldDecl11getBitWidthEv.exit
  call void @llvm.lifetime.start.p0(i64 16, ptr nonnull %3)
  call void @_ZNK5clang4Expr21EvaluateKnownConstIntERKNS_10ASTContextEPN4llvm15SmallVectorImplISt4pairINS_14SourceLocationENS_17PartialDiagnosticEEEE(ptr dead_on_unwind nonnull writable sret(%"class.llvm::APSInt") align 8 %3, ptr noundef nonnull align 8 dereferenceable(16) %18, ptr noundef nonnull align 8 dereferenceable(23096) %1, ptr noundef null) #27
  %23 = getelementptr inbounds nuw i8, ptr %3, i64 8
  %24 = load i32, ptr %23, align 8
  %25 = icmp ult i32 %24, 65
  %26 = load ptr, ptr %3, align 8
  %.0.in.i.i = select i1 %25, ptr %3, ptr %26
  %.0.i2.i = load i64, ptr %.0.in.i.i, align 8
  %27 = icmp eq ptr %26, null
  %or.cond.i = select i1 %25, i1 true, i1 %27
  br i1 %or.cond.i, label %_ZNK5clang9FieldDecl16getBitWidthValueERKNS_10ASTContextE.exit, label %28

28:                                               ; preds = %22
  call void @_ZdaPv(ptr noundef nonnull %26) #28
  br label %_ZNK5clang9FieldDecl16getBitWidthValueERKNS_10ASTContextE.exit

_ZNK5clang9FieldDecl16getBitWidthValueERKNS_10ASTContextE.exit: ; preds = %22, %28
  call void @llvm.lifetime.end.p0(i64 16, ptr nonnull %3)
  %29 = and i64 %.0.i2.i, 4294967295
  %30 = icmp eq i64 %29, 0
  br label %31

31:                                               ; preds = %_ZNK5clang9FieldDecl16getBitWidthValueERKNS_10ASTContextE.exit, %_ZNK5clang9FieldDecl11getBitWidthEv.exit, %2
  %32 = phi i1 [ false, %_ZNK5clang9FieldDecl11getBitWidthEv.exit ], [ false, %2 ], [ %30, %_ZNK5clang9FieldDecl16getBitWidthValueERKNS_10ASTContextE.exit ]
  ret i1 %32
}